target datalayout = "e-m:e-p270:32:32-p271:32:32-p272:64:64-i64:64-i128:128-f80:128-n8:16:32:64-S128"
target triple = "x86_64-pc-linux-gnu"

%struct.rb_code_location_struct = type { %struct.rb_code_position_struct, %struct.rb_code_position_struct }
%struct.rb_code_position_struct = type { i32, i32 }
%struct.rb_iseq_struct = type { i64, i64, ptr, %union.anon.13 }
%union.anon.13 = type { %struct.anon.14 }
%struct.anon.14 = type { i64, i32 }
%struct.rb_iseq_constant_body = type { i32, i32, ptr, %struct.anon.16, %struct.rb_iseq_location_struct, %struct.iseq_insn_info, ptr, ptr, ptr, ptr, ptr, ptr, %struct.anon.17, i32, i32, i32, i32, i32, i32, i32, i32, i8, %union.anon.18, ptr, ptr, ptr, i64, ptr, i64, ptr, i64 }
%struct.anon.16 = type { %struct.anon, i32, i32, i32, i32, i32, i32, i32, ptr, ptr }
%struct.anon = type { i16, [2 x i8] }
%struct.rb_iseq_location_struct = type { i64, i64, i64, i32, i32, %struct.rb_code_location_struct }
%struct.iseq_insn_info = type { ptr, ptr, i32, ptr }
%struct.anon.17 = type { i64, i64, i64, i64, ptr }
%union.anon.18 = type { ptr }
%struct.RBasic = type { i64, i64 }

@.str = private unnamed_addr constant [10 x i8] c"../iseq.c\00", align 1

; Function Attrs: inlinehint nounwind sspstrong willreturn memory(none) uwtable
define internal zeroext i1 @RB_IMMEDIATE_P(i64 noundef %0) #7 {
  %2 = alloca i64, align 8
  store i64 %0, ptr %2, align 8, !tbaa !17
  %3 = load i64, ptr %2, align 8, !tbaa !17
  %4 = and i64 %3, 7
  %5 = icmp ne i64 %4, 0
  ret i1 %5
}

; Function Attrs: inlinehint nounwind sspstrong willreturn memory(none) uwtable
define internal zeroext i1 @RB_SPECIAL_CONST_P(i64 noundef %0) #7 {
  %2 = alloca i64, align 8
  store i64 %0, ptr %2, align 8, !tbaa !17
  %3 = load i64, ptr %2, align 8, !tbaa !17
  %4 = icmp eq i64 %3, 0
  br i1 %4, label %8, label %5

5:                                                ; preds = %1
  %6 = load i64, ptr %2, align 8, !tbaa !17
  %7 = call zeroext i1 @RB_IMMEDIATE_P(i64 noundef %6) #28
  br label %8

8:                                                ; preds = %5, %1
  %9 = phi i1 [ true, %1 ], [ %7, %5 ]
  ret i1 %9
}

; Function Attrs: inlinehint nounwind sspstrong uwtable
define internal i64 @rb_obj_written(i64 noundef %0, i64 noundef %1, i64 noundef %2, ptr noundef %3, i32 noundef %4) #5 {
  %6 = alloca i64, align 8
  %7 = alloca i64, align 8
  %8 = alloca i64, align 8
  %9 = alloca ptr, align 8
  %10 = alloca i32, align 4
  store i64 %0, ptr %6, align 8, !tbaa !17
  store i64 %1, ptr %7, align 8, !tbaa !17
  store i64 %2, ptr %8, align 8, !tbaa !17
  store ptr %3, ptr %9, align 8, !tbaa !137
  store i32 %4, ptr %10, align 4, !tbaa !56
  %11 = load i64, ptr %8, align 8, !tbaa !17
  %12 = call zeroext i1 @RB_SPECIAL_CONST_P(i64 noundef %11) #28
  br i1 %12, label %16, label %13

13:                                               ; preds = %5
  %14 = load i64, ptr %6, align 8, !tbaa !17
  %15 = load i64, ptr %8, align 8, !tbaa !17
  call void @rb_gc_writebarrier(i64 noundef %14, i64 noundef %15)
  br label %16

16:                                               ; preds = %13, %5
  %17 = load i64, ptr %6, align 8, !tbaa !17
  ret i64 %17
}

; Function Attrs: inlinehint nounwind sspstrong uwtable
define internal i32 @imemo_type_p(i64 noundef %0, i32 noundef %1) #5 {
  %3 = alloca i32, align 4
  %4 = alloca i64, align 8
  %5 = alloca i32, align 4
  %6 = alloca i64, align 8
  %7 = alloca i64, align 8
  store i64 %0, ptr %4, align 8, !tbaa !17
  store i32 %1, ptr %5, align 4, !tbaa !56
  %8 = load i64, ptr %4, align 8, !tbaa !17
  %9 = call zeroext i1 @RB_SPECIAL_CONST_P(i64 noundef %8) #28
  %10 = xor i1 %9, true
  %11 = xor i1 %10, true
  %12 = xor i1 %11, true
  %13 = zext i1 %12 to i32
  %14 = sext i32 %13 to i64
  %15 = call i64 @llvm.expect.i64(i64 %14, i64 1)
  %16 = icmp ne i64 %15, 0
  br i1 %16, label %17, label %30

17:                                               ; preds = %2
  call void @llvm.lifetime.start.p0(i64 8, ptr %6) #24
  store i64 61471, ptr %6, align 8, !tbaa !17
  call void @llvm.lifetime.start.p0(i64 8, ptr %7) #24
  %18 = load i32, ptr %5, align 4, !tbaa !56
  %19 = shl i32 %18, 12
  %20 = or i32 %19, 26
  %21 = zext i32 %20 to i64
  store i64 %21, ptr %7, align 8, !tbaa !17
  %22 = load i64, ptr %7, align 8, !tbaa !17
  %23 = load i64, ptr %4, align 8, !tbaa !17
  %24 = inttoptr i64 %23 to ptr
  %25 = getelementptr inbounds nuw %struct.RBasic, ptr %24, i32 0, i32 0
  %26 = load i64, ptr %25, align 8, !tbaa !70
  %27 = and i64 %26, 61471
  %28 = icmp eq i64 %22, %27
  %29 = zext i1 %28 to i32
  store i32 %29, ptr %3, align 4
  call void @llvm.lifetime.end.p0(i64 8, ptr %7) #24
  call void @llvm.lifetime.end.p0(i64 8, ptr %6) #24
  br label %31

30:                                               ; preds = %2
  store i32 0, ptr %3, align 4
  br label %31

31:                                               ; preds = %30, %17
  %32 = load i32, ptr %3, align 4
  ret i32 %32
}

; Function Attrs: inlinehint nounwind sspstrong uwtable
define internal i64 @rb_obj_write(i64 noundef %0, ptr noundef %1, i64 noundef %2, ptr noundef %3, i32 noundef %4) #5 {
  %6 = alloca i64, align 8
  %7 = alloca ptr, align 8
  %8 = alloca i64, align 8
  %9 = alloca ptr, align 8
  %10 = alloca i32, align 4
  store i64 %0, ptr %6, align 8, !tbaa !17
  store ptr %1, ptr %7, align 8, !tbaa !66
  store i64 %2, ptr %8, align 8, !tbaa !17
  store ptr %3, ptr %9, align 8, !tbaa !137
  store i32 %4, ptr %10, align 4, !tbaa !56
  %11 = load i64, ptr %8, align 8, !tbaa !17
  %12 = load ptr, ptr %7, align 8, !tbaa !66
  store i64 %11, ptr %12, align 8, !tbaa !17
  %13 = load i64, ptr %6, align 8, !tbaa !17
  %14 = load i64, ptr %8, align 8, !tbaa !17
  %15 = load ptr, ptr %9, align 8, !tbaa !137
  %16 = load i32, ptr %10, align 4, !tbaa !56
  %17 = call i64 @rb_obj_written(i64 noundef %13, i64 noundef 36, i64 noundef %14, ptr noundef %15, i32 noundef %16)
  %18 = load i64, ptr %6, align 8, !tbaa !17
  ret i64 %18
}

; Function Attrs: inlinehint nounwind sspstrong uwtable
define internal i32 @rb_obj_is_iseq(i64 noundef %0) #5 {
  %2 = alloca i64, align 8
  store i64 %0, ptr %2, align 8, !tbaa !17
  %3 = load i64, ptr %2, align 8, !tbaa !17
  %4 = call i32 @imemo_type_p(i64 noundef %3, i32 noundef 7)
  ret i32 %4
}

; Function Attrs: nounwind sspstrong uwtable
define internal i32 @remove_coverage_i(ptr noundef %0, ptr noundef %1, i64 noundef %2, ptr noundef %3) #0 {
  %5 = alloca ptr, align 8
  %6 = alloca ptr, align 8
  %7 = alloca i64, align 8
  %8 = alloca ptr, align 8
  %9 = alloca i64, align 8
  %10 = alloca ptr, align 8
  %11 = alloca ptr, align 8
  store ptr %0, ptr %5, align 8, !tbaa !104
  store ptr %1, ptr %6, align 8, !tbaa !104
  store i64 %2, ptr %7, align 8, !tbaa !17
  store ptr %3, ptr %8, align 8, !tbaa !104
  call void @llvm.lifetime.start.p0(i64 8, ptr %9) #24
  %12 = load ptr, ptr %5, align 8, !tbaa !104
  %13 = ptrtoint ptr %12 to i64
  store i64 %13, ptr %9, align 8, !tbaa !17
  br label %14

14:                                               ; preds = %38, %4
  %15 = load i64, ptr %9, align 8, !tbaa !17
  %16 = load ptr, ptr %6, align 8, !tbaa !104
  %17 = ptrtoint ptr %16 to i64
  %18 = icmp ne i64 %15, %17
  br i1 %18, label %19, label %42

19:                                               ; preds = %14
  call void @llvm.lifetime.start.p0(i64 8, ptr %10) #24
  %20 = load i64, ptr %9, align 8, !tbaa !17
  %21 = call ptr @rb_asan_poisoned_object_p(i64 noundef %20)
  store ptr %21, ptr %10, align 8, !tbaa !104
  %22 = load i64, ptr %9, align 8, !tbaa !17
  call void @rb_asan_unpoison_object(i64 noundef %22, i1 noundef zeroext false)
  %23 = load i64, ptr %9, align 8, !tbaa !17
  %24 = call i32 @rb_obj_is_iseq(i64 noundef %23)
  %25 = icmp ne i32 %24, 0
  br i1 %25, label %26, label %37

26:                                               ; preds = %19
  call void @llvm.lifetime.start.p0(i64 8, ptr %11) #24
  %27 = load i64, ptr %9, align 8, !tbaa !17
  %28 = inttoptr i64 %27 to ptr
  store ptr %28, ptr %11, align 8, !tbaa !7
  %29 = load ptr, ptr %11, align 8, !tbaa !7
  %30 = ptrtoint ptr %29 to i64
  %31 = load ptr, ptr %11, align 8, !tbaa !7
  %32 = getelementptr inbounds nuw %struct.rb_iseq_struct, ptr %31, i32 0, i32 2
  %33 = load ptr, ptr %32, align 8, !tbaa !12
  %34 = getelementptr inbounds nuw %struct.rb_iseq_constant_body, ptr %33, i32 0, i32 12
  %35 = getelementptr inbounds nuw %struct.anon.17, ptr %34, i32 0, i32 2
  %36 = call i64 @rb_obj_write(i64 noundef %30, ptr noundef %35, i64 noundef 4, ptr noundef @.str, i32 noundef 1441)
  call void @llvm.lifetime.end.p0(i64 8, ptr %11) #24
  br label %37

37:                                               ; preds = %26, %19
  call void @llvm.lifetime.end.p0(i64 8, ptr %10) #24
  br label %38

38:                                               ; preds = %37
  %39 = load i64, ptr %7, align 8, !tbaa !17
  %40 = load i64, ptr %9, align 8, !tbaa !17
  %41 = add i64 %40, %39
  store i64 %41, ptr %9, align 8, !tbaa !17
  br label %14, !llvm.loop !266

42:                                               ; preds = %14
  call void @llvm.lifetime.end.p0(i64 8, ptr %9) #24
  ret i32 0
}