; Function Attrs: nounwind sspstrong uwtable
define internal noundef i32 @remove_coverage_i(ptr noundef %0, ptr noundef %1, i64 noundef %2, ptr readnone captures(none) %3) #0 {
  %5 = ptrtoint ptr %1 to i64
  %.not14 = icmp eq ptr %0, %1
  br i1 %.not14, label %._crit_edge, label %.lr.ph.preheader

.lr.ph.preheader:                                 ; preds = %4
  %6 = ptrtoint ptr %0 to i64
  br label %.lr.ph

.lr.ph:                                           ; preds = %.lr.ph.preheader, %rb_obj_is_iseq.exit.thread
  %.015 = phi i64 [ %19, %rb_obj_is_iseq.exit.thread ], [ %6, %.lr.ph.preheader ]
  %7 = tail call ptr @rb_asan_poisoned_object_p(i64 noundef %.015) #20
  tail call void @rb_asan_unpoison_object(i64 noundef %.015, i1 noundef zeroext false) #20
  %8 = icmp eq i64 %.015, 0
  %9 = and i64 %.015, 7
  %10 = icmp ne i64 %9, 0
  %11 = or i1 %8, %10
  br i1 %11, label %rb_obj_is_iseq.exit.thread, label %rb_obj_is_iseq.exit, !prof !93

rb_obj_is_iseq.exit:                              ; preds = %.lr.ph
  %12 = inttoptr i64 %.015 to ptr
  %13 = load i64, ptr %12, align 8, !tbaa !74
  %14 = and i64 %13, 61471
  %.not13 = icmp eq i64 %14, 28698
  br i1 %.not13, label %15, label %rb_obj_is_iseq.exit.thread

15:                                               ; preds = %rb_obj_is_iseq.exit
  %16 = getelementptr inbounds nuw i8, ptr %12, i64 16
  %17 = load ptr, ptr %16, align 8, !tbaa !7
  %18 = getelementptr inbounds nuw i8, ptr %17, i64 208
  store i64 4, ptr %18, align 8, !tbaa !42
  br label %rb_obj_is_iseq.exit.thread

rb_obj_is_iseq.exit.thread:                       ; preds = %.lr.ph, %15, %rb_obj_is_iseq.exit
  %19 = add i64 %.015, %2
  %.not = icmp eq i64 %19, %5
  br i1 %.not, label %._crit_edge, label %.lr.ph, !llvm.loop !252

._crit_edge:                                      ; preds = %rb_obj_is_iseq.exit.thread, %4
  ret i32 0
}